target datalayout = "e-m:e-p270:32:32-p271:32:32-p272:64:64-i64:64-i128:128-f80:128-n8:16:32:64-S128"
target triple = "x86_64-unknown-linux-gnu"

%"class.Assimp::MDLImporter" = type <{ %"class.Assimp::BaseImporter", i32, [4 x i8], %"class.std::__cxx11::basic_string", ptr, i32, [4 x i8], ptr, ptr, i32, %"struct.Assimp::MDL::HalfLife::HL1ImportSettings", [2 x i8] }>
%"class.Assimp::BaseImporter" = type { ptr, double, double, %"class.std::__cxx11::basic_string", %"class.std::__exception_ptr::exception_ptr", ptr }
%"class.std::__exception_ptr::exception_ptr" = type { ptr }
%"class.std::__cxx11::basic_string" = type { %"struct.std::__cxx11::basic_string<char>::_Alloc_hider", i64, %union.anon }
%"struct.std::__cxx11::basic_string<char>::_Alloc_hider" = type { ptr }
%union.anon = type { i64, [8 x i8] }
%"struct.Assimp::MDL::HalfLife::HL1ImportSettings" = type { i8, i8, i8, i8, i8, i8, i8, i8, i8, i8 }
%struct.aiScene = type { i32, ptr, i32, ptr, i32, ptr, i32, ptr, i32, ptr, i32, ptr, i32, ptr, ptr, %struct.aiString, i32, ptr, ptr }
%struct.aiString = type { i32, [1024 x i8] }
%"struct.Assimp::MDL::Header" = type { i32, i32, [3 x float], [3 x float], float, [3 x float], i32, i32, i32, i32, i32, i32, i32, i32, float }
%class.aiColor4t = type { float, float, float, float }
%struct.aiTexture = type <{ i32, i32, [9 x i8], [7 x i8], ptr, %struct.aiString, [4 x i8] }>
%union._IEEESingle = type { float }

@.str.55 = private unnamed_addr constant [14 x i8] c"$mat.shadingm\00", align 1
@.str.56 = private unnamed_addr constant [3 x i8] c"*0\00", align 1
@.str.57 = private unnamed_addr constant [10 x i8] c"$tex.file\00", align 1
@.str.58 = private unnamed_addr constant [13 x i8] c"$clr.diffuse\00", align 1
@.str.59 = private unnamed_addr constant [14 x i8] c"$clr.specular\00", align 1
@.str.60 = private unnamed_addr constant [13 x i8] c"$clr.ambient\00", align 1

; Function Attrs: mustprogress nounwind uwtable
define linkonce_odr hidden noundef zeroext i1 @_Z7is_qnanf(float noundef %in) #0 comdat {
entry:
  %in.addr = alloca float, align 4
  %temp = alloca %union._IEEESingle, align 4
  store float %in, ptr %in.addr, align 4
  call void @llvm.memcpy.p0.p0.i64(ptr align 4 %temp, ptr align 4 %in.addr, i64 4, i1 false)
  %bf.load = load i32, ptr %temp, align 4
  %bf.lshr = lshr i32 %bf.load, 23
  %bf.clear = and i32 %bf.lshr, 255
  %cmp = icmp eq i32 %bf.clear, 255
  br i1 %cmp, label %land.rhs, label %land.end

land.rhs:                                         ; preds = %entry
  %bf.load1 = load i32, ptr %temp, align 4
  %bf.clear2 = and i32 %bf.load1, 8388607
  %tobool = icmp ne i32 %bf.clear2, 0
  br label %land.end

land.end:                                         ; preds = %land.rhs, %entry
  %0 = phi i1 [ false, %entry ], [ %tobool, %land.rhs ]
  ret i1 %0
}

; Function Attrs: mustprogress uwtable
define linkonce_odr hidden noundef i32 @_ZN10aiMaterial11AddPropertyI9aiColor4tIfEEE8aiReturnPKT_jPKcjj(ptr noundef nonnull align 8 dereferenceable(16) %this, ptr noundef %pInput, i32 noundef %pNumValues, ptr noundef %pKey, i32 noundef %type, i32 noundef %index) #2 comdat align 2 {
entry:
  %this.addr = alloca ptr, align 8
  %pInput.addr = alloca ptr, align 8
  %pNumValues.addr = alloca i32, align 4
  %pKey.addr = alloca ptr, align 8
  %type.addr = alloca i32, align 4
  %index.addr = alloca i32, align 4
  store ptr %this, ptr %this.addr, align 8
  store ptr %pInput, ptr %pInput.addr, align 8
  store i32 %pNumValues, ptr %pNumValues.addr, align 4
  store ptr %pKey, ptr %pKey.addr, align 8
  store i32 %type, ptr %type.addr, align 4
  store i32 %index, ptr %index.addr, align 4
  %this1 = load ptr, ptr %this.addr, align 8
  %0 = load ptr, ptr %pInput.addr, align 8
  %1 = load i32, ptr %pNumValues.addr, align 4
  %conv = zext i32 %1 to i64
  %mul = mul i64 %conv, 16
  %conv2 = trunc i64 %mul to i32
  %2 = load ptr, ptr %pKey.addr, align 8
  %3 = load i32, ptr %type.addr, align 4
  %4 = load i32, ptr %index.addr, align 4
  %call = call noundef i32 @_ZN10aiMaterial17AddBinaryPropertyEPKvjPKcjj18aiPropertyTypeInfo(ptr noundef nonnull align 8 dereferenceable(16) %this1, ptr noundef %0, i32 noundef %conv2, ptr noundef %2, i32 noundef %3, i32 noundef %4, i32 noundef 1)
  ret i32 %call
}

; Function Attrs: mustprogress nounwind uwtable
define linkonce_odr hidden void @_ZN8aiStringC2Ev(ptr noundef nonnull align 4 dereferenceable(1028) %this) unnamed_addr #0 comdat align 2 {
entry:
  %this.addr = alloca ptr, align 8
  store ptr %this, ptr %this.addr, align 8
  %this1 = load ptr, ptr %this.addr, align 8
  %length = getelementptr inbounds %struct.aiString, ptr %this1, i32 0, i32 0
  store i32 0, ptr %length, align 4
  %data = getelementptr inbounds %struct.aiString, ptr %this1, i32 0, i32 1
  %arrayidx = getelementptr inbounds [1024 x i8], ptr %data, i64 0, i64 0
  store i8 0, ptr %arrayidx, align 4
  ret void
}

; Function Attrs: mustprogress nounwind uwtable
define linkonce_odr hidden void @_ZN9aiTextureD2Ev(ptr noundef nonnull align 8 dereferenceable(1060) %this) unnamed_addr #0 comdat align 2 {
entry:
  %this.addr = alloca ptr, align 8
  store ptr %this, ptr %this.addr, align 8
  %this1 = load ptr, ptr %this.addr, align 8
  %pcData = getelementptr inbounds %struct.aiTexture, ptr %this1, i32 0, i32 4
  %0 = load ptr, ptr %pcData, align 8
  %isnull = icmp eq ptr %0, null
  br i1 %isnull, label %delete.end, label %delete.notnull

delete.notnull:                                   ; preds = %entry
  call void @_ZdaPv(ptr noundef %0) #19
  br label %delete.end

delete.end:                                       ; preds = %delete.notnull, %entry
  ret void
}

; Function Attrs: mustprogress uwtable
define linkonce_odr hidden noundef zeroext i1 @_Z11is_not_qnanIfEbT_(float noundef %in) #2 comdat {
entry:
  %in.addr = alloca float, align 4
  store float %in, ptr %in.addr, align 4
  %0 = load float, ptr %in.addr, align 4
  %call = call noundef zeroext i1 @_Z7is_qnanf(float noundef %0)
  %lnot = xor i1 %call, true
  ret i1 %lnot
}

; Function Attrs: mustprogress nounwind uwtable
define linkonce_odr hidden void @_ZN9aiColor4tIfEC2Ev(ptr noundef nonnull align 4 dereferenceable(16) %this) unnamed_addr #0 comdat align 2 {
entry:
  %this.addr = alloca ptr, align 8
  store ptr %this, ptr %this.addr, align 8
  %this1 = load ptr, ptr %this.addr, align 8
  %r = getelementptr inbounds %class.aiColor4t, ptr %this1, i32 0, i32 0
  store float 0.000000e+00, ptr %r, align 4
  %g = getelementptr inbounds %class.aiColor4t, ptr %this1, i32 0, i32 1
  store float 0.000000e+00, ptr %g, align 4
  %b = getelementptr inbounds %class.aiColor4t, ptr %this1, i32 0, i32 2
  store float 0.000000e+00, ptr %b, align 4
  %a = getelementptr inbounds %class.aiColor4t, ptr %this1, i32 0, i32 3
  store float 0.000000e+00, ptr %a, align 4
  ret void
}

; Function Attrs: mustprogress uwtable
define linkonce_odr noundef i32 @_ZN10aiMaterial11AddPropertyIiEE8aiReturnPKT_jPKcjj(ptr noundef nonnull align 8 dereferenceable(16) %this, ptr noundef %pInput, i32 noundef %pNumValues, ptr noundef %pKey, i32 noundef %type, i32 noundef %index) #2 comdat align 2 {
entry:
  %this.addr = alloca ptr, align 8
  %pInput.addr = alloca ptr, align 8
  %pNumValues.addr = alloca i32, align 4
  %pKey.addr = alloca ptr, align 8
  %type.addr = alloca i32, align 4
  %index.addr = alloca i32, align 4
  store ptr %this, ptr %this.addr, align 8
  store ptr %pInput, ptr %pInput.addr, align 8
  store i32 %pNumValues, ptr %pNumValues.addr, align 4
  store ptr %pKey, ptr %pKey.addr, align 8
  store i32 %type, ptr %type.addr, align 4
  store i32 %index, ptr %index.addr, align 4
  %this1 = load ptr, ptr %this.addr, align 8
  %0 = load ptr, ptr %pInput.addr, align 8
  %1 = load i32, ptr %pNumValues.addr, align 4
  %conv = zext i32 %1 to i64
  %mul = mul i64 %conv, 4
  %conv2 = trunc i64 %mul to i32
  %2 = load ptr, ptr %pKey.addr, align 8
  %3 = load i32, ptr %type.addr, align 4
  %4 = load i32, ptr %index.addr, align 4
  %call = call noundef i32 @_ZN10aiMaterial17AddBinaryPropertyEPKvjPKcjj18aiPropertyTypeInfo(ptr noundef nonnull align 8 dereferenceable(16) %this1, ptr noundef %0, i32 noundef %conv2, ptr noundef %2, i32 noundef %3, i32 noundef %4, i32 noundef 4)
  ret i32 %call
}

; Function Attrs: mustprogress uwtable
define hidden void @_ZN6Assimp11MDLImporter40SetupMaterialProperties_3DGS_MDL5_Quake1Ev(ptr noundef nonnull align 8 dereferenceable(158) %this) #10 align 2 personality ptr @__gxx_personality_v0 {
entry:
  %this.addr = alloca ptr, align 8
  %pcHeader = alloca ptr, align 8
  %exn.slot = alloca ptr, align 8
  %ehselector.slot = alloca i32, align 4
  %iMode = alloca i32, align 4
  %pcHelper = alloca ptr, align 8
  %clr = alloca %class.aiColor4t, align 4
  %ref.tmp = alloca %class.aiColor4t, align 4
  %szString = alloca %struct.aiString, align 4
  store ptr %this, ptr %this.addr, align 8
  %this1 = load ptr, ptr %this.addr, align 8
  %mBuffer = getelementptr inbounds %"class.Assimp::MDLImporter", ptr %this1, i32 0, i32 4
  %0 = load ptr, ptr %mBuffer, align 8
  store ptr %0, ptr %pcHeader, align 8
  %call = call noalias noundef nonnull ptr @_Znam(i64 noundef 8) #18
  %pScene = getelementptr inbounds %"class.Assimp::MDLImporter", ptr %this1, i32 0, i32 8
  %1 = load ptr, ptr %pScene, align 8
  %mMaterials = getelementptr inbounds %struct.aiScene, ptr %1, i32 0, i32 5
  store ptr %call, ptr %mMaterials, align 8
  %call2 = call noalias noundef nonnull ptr @_Znwm(i64 noundef 16) #18
  invoke void @_ZN10aiMaterialC1Ev(ptr noundef nonnull align 8 dereferenceable(16) %call2)
          to label %invoke.cont unwind label %lpad

invoke.cont:                                      ; preds = %entry
  %pScene3 = getelementptr inbounds %"class.Assimp::MDLImporter", ptr %this1, i32 0, i32 8
  %2 = load ptr, ptr %pScene3, align 8
  %mMaterials4 = getelementptr inbounds %struct.aiScene, ptr %2, i32 0, i32 5
  %3 = load ptr, ptr %mMaterials4, align 8
  %arrayidx = getelementptr inbounds ptr, ptr %3, i64 0
  store ptr %call2, ptr %arrayidx, align 8
  %pScene5 = getelementptr inbounds %"class.Assimp::MDLImporter", ptr %this1, i32 0, i32 8
  %4 = load ptr, ptr %pScene5, align 8
  %mNumMaterials = getelementptr inbounds %struct.aiScene, ptr %4, i32 0, i32 4
  store i32 1, ptr %mNumMaterials, align 8
  store i32 2, ptr %iMode, align 4
  %pScene6 = getelementptr inbounds %"class.Assimp::MDLImporter", ptr %this1, i32 0, i32 8
  %5 = load ptr, ptr %pScene6, align 8
  %mMaterials7 = getelementptr inbounds %struct.aiScene, ptr %5, i32 0, i32 5
  %6 = load ptr, ptr %mMaterials7, align 8
  %arrayidx8 = getelementptr inbounds ptr, ptr %6, i64 0
  %7 = load ptr, ptr %arrayidx8, align 8
  store ptr %7, ptr %pcHelper, align 8
  %8 = load ptr, ptr %pcHelper, align 8
  %call9 = call noundef i32 @_ZN10aiMaterial11AddPropertyIiEE8aiReturnPKT_jPKcjj(ptr noundef nonnull align 8 dereferenceable(16) %8, ptr noundef %iMode, i32 noundef 1, ptr noundef @.str.55, i32 noundef 0, i32 noundef 0)
  call void @_ZN9aiColor4tIfEC2Ev(ptr noundef nonnull align 4 dereferenceable(16) %clr) #16
  %9 = load ptr, ptr %pcHeader, align 8
  %num_skins = getelementptr inbounds %"struct.Assimp::MDL::Header", ptr %9, i32 0, i32 6
  %10 = load i32, ptr %num_skins, align 1
  %cmp = icmp ne i32 0, %10
  br i1 %cmp, label %land.lhs.true, label %if.end30

land.lhs.true:                                    ; preds = %invoke.cont
  %pScene10 = getelementptr inbounds %"class.Assimp::MDLImporter", ptr %this1, i32 0, i32 8
  %11 = load ptr, ptr %pScene10, align 8
  %mNumTextures = getelementptr inbounds %struct.aiScene, ptr %11, i32 0, i32 8
  %12 = load i32, ptr %mNumTextures, align 8
  %tobool = icmp ne i32 %12, 0
  br i1 %tobool, label %if.then, label %if.end30

if.then:                                          ; preds = %land.lhs.true
  %pScene11 = getelementptr inbounds %"class.Assimp::MDLImporter", ptr %this1, i32 0, i32 8
  %13 = load ptr, ptr %pScene11, align 8
  %mTextures = getelementptr inbounds %struct.aiScene, ptr %13, i32 0, i32 9
  %14 = load ptr, ptr %mTextures, align 8
  %arrayidx12 = getelementptr inbounds ptr, ptr %14, i64 0
  %15 = load ptr, ptr %arrayidx12, align 8
  %call13 = call { <2 x float>, <2 x float> } @_ZN6Assimp11MDLImporter23ReplaceTextureWithColorEPK9aiTexture(ptr noundef nonnull align 8 dereferenceable(158) %this1, ptr noundef %15)
  %16 = getelementptr inbounds { <2 x float>, <2 x float> }, ptr %ref.tmp, i32 0, i32 0
  %17 = extractvalue { <2 x float>, <2 x float> } %call13, 0
  store <2 x float> %17, ptr %16, align 4
  %18 = getelementptr inbounds { <2 x float>, <2 x float> }, ptr %ref.tmp, i32 0, i32 1
  %19 = extractvalue { <2 x float>, <2 x float> } %call13, 1
  store <2 x float> %19, ptr %18, align 4
  call void @llvm.memcpy.p0.p0.i64(ptr align 4 %clr, ptr align 4 %ref.tmp, i64 16, i1 false)
  %r = getelementptr inbounds %class.aiColor4t, ptr %clr, i32 0, i32 0
  %20 = load float, ptr %r, align 4
  %call14 = call noundef zeroext i1 @_Z11is_not_qnanIfEbT_(float noundef %20)
  br i1 %call14, label %if.then15, label %if.else

if.then15:                                        ; preds = %if.then
  %pScene16 = getelementptr inbounds %"class.Assimp::MDLImporter", ptr %this1, i32 0, i32 8
  %21 = load ptr, ptr %pScene16, align 8
  %mTextures17 = getelementptr inbounds %struct.aiScene, ptr %21, i32 0, i32 9
  %22 = load ptr, ptr %mTextures17, align 8
  %arrayidx18 = getelementptr inbounds ptr, ptr %22, i64 0
  %23 = load ptr, ptr %arrayidx18, align 8
  %isnull = icmp eq ptr %23, null
  br i1 %isnull, label %delete.end, label %delete.notnull

delete.notnull:                                   ; preds = %if.then15
  call void @_ZN9aiTextureD2Ev(ptr noundef nonnull align 8 dereferenceable(1060) %23) #16
  call void @_ZdlPv(ptr noundef %23) #19
  br label %delete.end

delete.end:                                       ; preds = %delete.notnull, %if.then15
  %pScene19 = getelementptr inbounds %"class.Assimp::MDLImporter", ptr %this1, i32 0, i32 8
  %24 = load ptr, ptr %pScene19, align 8
  %mTextures20 = getelementptr inbounds %struct.aiScene, ptr %24, i32 0, i32 9
  %25 = load ptr, ptr %mTextures20, align 8
  %isnull21 = icmp eq ptr %25, null
  br i1 %isnull21, label %delete.end23, label %delete.notnull22

delete.notnull22:                                 ; preds = %delete.end
  call void @_ZdaPv(ptr noundef %25) #19
  br label %delete.end23

delete.end23:                                     ; preds = %delete.notnull22, %delete.end
  %pScene24 = getelementptr inbounds %"class.Assimp::MDLImporter", ptr %this1, i32 0, i32 8
  %26 = load ptr, ptr %pScene24, align 8
  %mTextures25 = getelementptr inbounds %struct.aiScene, ptr %26, i32 0, i32 9
  store ptr null, ptr %mTextures25, align 8
  %pScene26 = getelementptr inbounds %"class.Assimp::MDLImporter", ptr %this1, i32 0, i32 8
  %27 = load ptr, ptr %pScene26, align 8
  %mNumTextures27 = getelementptr inbounds %struct.aiScene, ptr %27, i32 0, i32 8
  store i32 0, ptr %mNumTextures27, align 8
  br label %if.end

lpad:                                             ; preds = %entry
  %28 = landingpad { ptr, i32 }
          cleanup
  %29 = extractvalue { ptr, i32 } %28, 0
  store ptr %29, ptr %exn.slot, align 8
  %30 = extractvalue { ptr, i32 } %28, 1
  store i32 %30, ptr %ehselector.slot, align 4
  call void @_ZdlPv(ptr noundef %call2) #19
  br label %eh.resume

if.else:                                          ; preds = %if.then
  %r28 = getelementptr inbounds %class.aiColor4t, ptr %clr, i32 0, i32 0
  store float 1.000000e+00, ptr %r28, align 4
  %g = getelementptr inbounds %class.aiColor4t, ptr %clr, i32 0, i32 1
  store float 1.000000e+00, ptr %g, align 4
  %a = getelementptr inbounds %class.aiColor4t, ptr %clr, i32 0, i32 3
  store float 1.000000e+00, ptr %a, align 4
  %b = getelementptr inbounds %class.aiColor4t, ptr %clr, i32 0, i32 2
  store float 1.000000e+00, ptr %b, align 4
  call void @_ZN8aiStringC2Ev(ptr noundef nonnull align 4 dereferenceable(1028) %szString) #16
  %data = getelementptr inbounds %struct.aiString, ptr %szString, i32 0, i32 1
  %arraydecay = getelementptr inbounds [1024 x i8], ptr %data, i64 0, i64 0
  call void @llvm.memcpy.p0.p0.i64(ptr align 4 %arraydecay, ptr align 1 @.str.56, i64 3, i1 false)
  %length = getelementptr inbounds %struct.aiString, ptr %szString, i32 0, i32 0
  store i32 2, ptr %length, align 4
  %31 = load ptr, ptr %pcHelper, align 8
  %call29 = call noundef i32 @_ZN10aiMaterial11AddPropertyEPK8aiStringPKcjj(ptr noundef nonnull align 8 dereferenceable(16) %31, ptr noundef %szString, ptr noundef @.str.57, i32 noundef 1, i32 noundef 0)
  br label %if.end

if.end:                                           ; preds = %if.else, %delete.end23
  br label %if.end30

if.end30:                                         ; preds = %if.end, %land.lhs.true, %invoke.cont
  %32 = load ptr, ptr %pcHelper, align 8
  %call31 = call noundef i32 @_ZN10aiMaterial11AddPropertyI9aiColor4tIfEEE8aiReturnPKT_jPKcjj(ptr noundef nonnull align 8 dereferenceable(16) %32, ptr noundef %clr, i32 noundef 1, ptr noundef @.str.58, i32 noundef 0, i32 noundef 0)
  %33 = load ptr, ptr %pcHelper, align 8
  %call32 = call noundef i32 @_ZN10aiMaterial11AddPropertyI9aiColor4tIfEEE8aiReturnPKT_jPKcjj(ptr noundef nonnull align 8 dereferenceable(16) %33, ptr noundef %clr, i32 noundef 1, ptr noundef @.str.59, i32 noundef 0, i32 noundef 0)
  %r33 = getelementptr inbounds %class.aiColor4t, ptr %clr, i32 0, i32 0
  %34 = load float, ptr %r33, align 4
  %mul = fmul float %34, 0x3FA99999A0000000
  store float %mul, ptr %r33, align 4
  %g34 = getelementptr inbounds %class.aiColor4t, ptr %clr, i32 0, i32 1
  %35 = load float, ptr %g34, align 4
  %mul35 = fmul float %35, 0x3FA99999A0000000
  store float %mul35, ptr %g34, align 4
  %b36 = getelementptr inbounds %class.aiColor4t, ptr %clr, i32 0, i32 2
  %36 = load float, ptr %b36, align 4
  %mul37 = fmul float %36, 0x3FA99999A0000000
  store float %mul37, ptr %b36, align 4
  %a38 = getelementptr inbounds %class.aiColor4t, ptr %clr, i32 0, i32 3
  store float 1.000000e+00, ptr %a38, align 4
  %37 = load ptr, ptr %pcHelper, align 8
  %call39 = call noundef i32 @_ZN10aiMaterial11AddPropertyI9aiColor4tIfEEE8aiReturnPKT_jPKcjj(ptr noundef nonnull align 8 dereferenceable(16) %37, ptr noundef %clr, i32 noundef 1, ptr noundef @.str.60, i32 noundef 0, i32 noundef 0)
  ret void

eh.resume:                                        ; preds = %lpad
  %exn = load ptr, ptr %exn.slot, align 8
  %sel = load i32, ptr %ehselector.slot, align 4
  %lpad.val = insertvalue { ptr, i32 } poison, ptr %exn, 0
  %lpad.val40 = insertvalue { ptr, i32 } %lpad.val, i32 %sel, 1
  resume { ptr, i32 } %lpad.val40
}