; Function Attrs: mustprogress uwtable
define hidden void @_ZN6Assimp11MDLImporter40SetupMaterialProperties_3DGS_MDL5_Quake1Ev(ptr noundef nonnull align 8 dereferenceable(158) %this) local_unnamed_addr #12 align 2 personality ptr @__gxx_personality_v0 {
entry:
  %iMode = alloca i32, align 4
  %clr = alloca %class.aiColor4t, align 16
  %szString = alloca %struct.aiString, align 4
  %mBuffer = getelementptr inbounds i8, ptr %this, i64 112
  %0 = load ptr, ptr %mBuffer, align 8
  %call = tail call noalias noundef nonnull dereferenceable(8) ptr @_Znam(i64 noundef 8) #26
  %pScene = getelementptr inbounds i8, ptr %this, i64 136
  %1 = load ptr, ptr %pScene, align 8
  %mMaterials = getelementptr inbounds i8, ptr %1, i64 40
  store ptr %call, ptr %mMaterials, align 8
  %call2 = tail call noalias noundef nonnull dereferenceable(16) ptr @_Znwm(i64 noundef 16) #26
  invoke void @_ZN10aiMaterialC1Ev(ptr noundef nonnull align 8 dereferenceable(16) %call2)
          to label %invoke.cont unwind label %lpad

invoke.cont:                                      ; preds = %entry
  %2 = load ptr, ptr %pScene, align 8
  %mMaterials4 = getelementptr inbounds i8, ptr %2, i64 40
  %3 = load ptr, ptr %mMaterials4, align 8
  store ptr %call2, ptr %3, align 8
  %4 = load ptr, ptr %pScene, align 8
  %mNumMaterials = getelementptr inbounds i8, ptr %4, i64 32
  store i32 1, ptr %mNumMaterials, align 8
  store i32 2, ptr %iMode, align 4
  %5 = load ptr, ptr %pScene, align 8
  %mMaterials7 = getelementptr inbounds i8, ptr %5, i64 40
  %6 = load ptr, ptr %mMaterials7, align 8
  %7 = load ptr, ptr %6, align 8
  %call.i = call noundef i32 @_ZN10aiMaterial17AddBinaryPropertyEPKvjPKcjj18aiPropertyTypeInfo(ptr noundef nonnull align 8 dereferenceable(16) %7, ptr noundef nonnull %iMode, i32 noundef 4, ptr noundef nonnull @.str.55, i32 noundef 0, i32 noundef 0, i32 noundef 4)
  call void @llvm.memset.p0.i64(ptr noundef nonnull align 16 dereferenceable(16) %clr, i8 0, i64 16, i1 false)
  %num_skins = getelementptr inbounds i8, ptr %0, i64 48
  %8 = load i32, ptr %num_skins, align 1
  %cmp.not = icmp eq i32 %8, 0
  br i1 %cmp.not, label %if.end30, label %land.lhs.true

land.lhs.true:                                    ; preds = %invoke.cont
  %9 = load ptr, ptr %pScene, align 8
  %mNumTextures = getelementptr inbounds i8, ptr %9, i64 64
  %10 = load i32, ptr %mNumTextures, align 8
  %tobool.not = icmp eq i32 %10, 0
  br i1 %tobool.not, label %if.end30, label %if.then

if.then:                                          ; preds = %land.lhs.true
  %mTextures = getelementptr inbounds i8, ptr %9, i64 72
  %11 = load ptr, ptr %mTextures, align 8
  %12 = load ptr, ptr %11, align 8
  %call13 = call { <2 x float>, <2 x float> } @_ZN6Assimp11MDLImporter23ReplaceTextureWithColorEPK9aiTexture(ptr noundef nonnull align 8 dereferenceable(158) %this, ptr noundef %12)
  %13 = extractvalue { <2 x float>, <2 x float> } %call13, 0
  %14 = extractvalue { <2 x float>, <2 x float> } %call13, 1
  store <2 x float> %13, ptr %clr, align 16
  %ref.tmp.sroa.2.0.clr.sroa_idx = getelementptr inbounds i8, ptr %clr, i64 8
  store <2 x float> %14, ptr %ref.tmp.sroa.2.0.clr.sroa_idx, align 8
  %bc = bitcast <2 x float> %13 to <2 x i32>
  %15 = extractelement <2 x i32> %bc, i64 0
  %16 = and i32 %15, 2139095040
  %cmp.i.i = icmp ne i32 %16, 2139095040
  %bf.clear2.i.i = and i32 %15, 8388607
  %tobool.i.i = icmp eq i32 %bf.clear2.i.i, 0
  %.not.i = or i1 %cmp.i.i, %tobool.i.i
  br i1 %.not.i, label %if.then15, label %if.else

if.then15:                                        ; preds = %if.then
  %17 = load ptr, ptr %pScene, align 8
  %mTextures17 = getelementptr inbounds i8, ptr %17, i64 72
  %18 = load ptr, ptr %mTextures17, align 8
  %19 = load ptr, ptr %18, align 8
  %isnull = icmp eq ptr %19, null
  br i1 %isnull, label %delete.notnull22, label %delete.notnull

delete.notnull:                                   ; preds = %if.then15
  %pcData.i = getelementptr inbounds i8, ptr %19, i64 24
  %20 = load ptr, ptr %pcData.i, align 8
  %isnull.i = icmp eq ptr %20, null
  br i1 %isnull.i, label %delete.end, label %delete.notnull.i

delete.notnull.i:                                 ; preds = %delete.notnull
  call void @_ZdaPv(ptr noundef nonnull %20) #27
  br label %delete.end

delete.end:                                       ; preds = %delete.notnull.i, %delete.notnull
  call void @_ZdlPv(ptr noundef nonnull %19) #27
  %.pre = load ptr, ptr %pScene, align 8
  %mTextures20.phi.trans.insert = getelementptr inbounds i8, ptr %.pre, i64 72
  %.pre9 = load ptr, ptr %mTextures20.phi.trans.insert, align 8
  %isnull21 = icmp eq ptr %.pre9, null
  br i1 %isnull21, label %delete.end23, label %delete.notnull22

delete.notnull22:                                 ; preds = %if.then15, %delete.end
  %21 = phi ptr [ %.pre9, %delete.end ], [ %18, %if.then15 ]
  call void @_ZdaPv(ptr noundef nonnull %21) #27
  %.pre10 = load ptr, ptr %pScene, align 8
  br label %delete.end23

delete.end23:                                     ; preds = %delete.notnull22, %delete.end
  %22 = phi ptr [ %.pre10, %delete.notnull22 ], [ %.pre, %delete.end ]
  %mTextures25 = getelementptr inbounds i8, ptr %22, i64 72
  store ptr null, ptr %mTextures25, align 8
  %23 = load ptr, ptr %pScene, align 8
  %mNumTextures27 = getelementptr inbounds i8, ptr %23, i64 64
  store i32 0, ptr %mNumTextures27, align 8
  br label %if.end30

lpad:                                             ; preds = %entry
  %24 = landingpad { ptr, i32 }
          cleanup
  tail call void @_ZdlPv(ptr noundef nonnull %call2) #27
  resume { ptr, i32 } %24

if.else:                                          ; preds = %if.then
  store <4 x float> <float 1.000000e+00, float 1.000000e+00, float 1.000000e+00, float 1.000000e+00>, ptr %clr, align 16
  %data.i = getelementptr inbounds i8, ptr %szString, i64 4
  call void @llvm.memcpy.p0.p0.i64(ptr noundef nonnull align 4 dereferenceable(3) %data.i, ptr noundef nonnull align 1 dereferenceable(3) @.str.56, i64 3, i1 false)
  store i32 2, ptr %szString, align 4
  %call29 = call noundef i32 @_ZN10aiMaterial11AddPropertyEPK8aiStringPKcjj(ptr noundef nonnull align 8 dereferenceable(16) %7, ptr noundef nonnull %szString, ptr noundef nonnull @.str.57, i32 noundef 1, i32 noundef 0)
  br label %if.end30

if.end30:                                         ; preds = %delete.end23, %if.else, %land.lhs.true, %invoke.cont
  %call.i6 = call noundef i32 @_ZN10aiMaterial17AddBinaryPropertyEPKvjPKcjj18aiPropertyTypeInfo(ptr noundef nonnull align 8 dereferenceable(16) %7, ptr noundef nonnull %clr, i32 noundef 16, ptr noundef nonnull @.str.58, i32 noundef 0, i32 noundef 0, i32 noundef 1)
  %call.i7 = call noundef i32 @_ZN10aiMaterial17AddBinaryPropertyEPKvjPKcjj18aiPropertyTypeInfo(ptr noundef nonnull align 8 dereferenceable(16) %7, ptr noundef nonnull %clr, i32 noundef 16, ptr noundef nonnull @.str.59, i32 noundef 0, i32 noundef 0, i32 noundef 1)
  %25 = load <2 x float>, ptr %clr, align 16
  %26 = fmul <2 x float> %25, <float 0x3FA99999A0000000, float 0x3FA99999A0000000>
  store <2 x float> %26, ptr %clr, align 16
  %b36 = getelementptr inbounds i8, ptr %clr, i64 8
  %27 = load float, ptr %b36, align 8
  %mul37 = fmul float %27, 0x3FA99999A0000000
  store float %mul37, ptr %b36, align 8
  %a38 = getelementptr inbounds i8, ptr %clr, i64 12
  store float 1.000000e+00, ptr %a38, align 4
  %call.i8 = call noundef i32 @_ZN10aiMaterial17AddBinaryPropertyEPKvjPKcjj18aiPropertyTypeInfo(ptr noundef nonnull align 8 dereferenceable(16) %7, ptr noundef nonnull %clr, i32 noundef 16, ptr noundef nonnull @.str.60, i32 noundef 0, i32 noundef 0, i32 noundef 1)
  ret void
}